; Function Attrs: mustprogress nofree norecurse nosync nounwind willreturn memory(argmem: readwrite) uwtable
define internal noundef zeroext i1 @FindLowestDeviceID(ptr noundef captures(none) %0, ptr readnone captures(none) %1, ptr noundef %2, ptr noundef %3) #8 {
  %5 = ptrtoint ptr %2 to i64
  %6 = trunc i64 %5 to i32
  %7 = and i32 %6, 2
  %.not12 = icmp eq i32 %7, 0
  br i1 %.not12, label %18, label %8

8:                                                ; preds = %4
  %9 = and i32 %6, 1
  %10 = load i8, ptr %0, align 8, !range !6, !noundef !7
  %11 = zext nneg i8 %10 to i32
  %.not = icmp eq i32 %9, %11
  br i1 %.not, label %18, label %12

12:                                               ; preds = %8
  %13 = getelementptr inbounds nuw i8, ptr %0, i64 4
  %14 = load i32, ptr %13, align 4
  %15 = icmp ugt i32 %14, %6
  br i1 %15, label %16, label %18

16:                                               ; preds = %12
  store i32 %6, ptr %13, align 4
  %17 = getelementptr inbounds nuw i8, ptr %0, i64 8
  store ptr %3, ptr %17, align 8
  br label %18

18:                                               ; preds = %16, %12, %8, %4
  ret i1 true
}